target datalayout = "e-m:e-p270:32:32-p271:32:32-p272:64:64-i64:64-i128:128-f80:128-n8:16:32:64-S128"
target triple = "x86_64-unknown-linux-gnu"

%"struct.node::inspector::protocol::Status" = type { i32, i64 }
%"class.node::inspector::protocol::cbor::EnvelopeEncoder" = type { i64 }
%"class.node::inspector::protocol::StreamingParserHandler" = type { ptr }
%"class.std::vector.183" = type { %"struct.std::_Vector_base.184" }
%"struct.std::_Vector_base.184" = type { %"struct.std::_Vector_base<node::inspector::protocol::cbor::EnvelopeEncoder, std::allocator<node::inspector::protocol::cbor::EnvelopeEncoder>>::_Vector_impl" }
%"struct.std::_Vector_base<node::inspector::protocol::cbor::EnvelopeEncoder, std::allocator<node::inspector::protocol::cbor::EnvelopeEncoder>>::_Vector_impl" = type { %"struct.std::_Vector_base<node::inspector::protocol::cbor::EnvelopeEncoder, std::allocator<node::inspector::protocol::cbor::EnvelopeEncoder>>::_Vector_impl_data" }
%"struct.std::_Vector_base<node::inspector::protocol::cbor::EnvelopeEncoder, std::allocator<node::inspector::protocol::cbor::EnvelopeEncoder>>::_Vector_impl_data" = type { ptr, ptr, ptr }
%"class.node::inspector::protocol::cbor::(anonymous namespace)::CBOREncoder.188" = type { %"class.node::inspector::protocol::StreamingParserHandler", ptr, %"class.std::vector.183", ptr }
%"class.__gnu_cxx::__normal_iterator.271" = type { ptr }

; Function Attrs: mustprogress nounwind uwtable
define linkonce_odr dso_local void @_ZNSt15__new_allocatorIN4node9inspector8protocol4cbor15EnvelopeEncoderEE7destroyIS4_EEvPT_(ptr noundef nonnull align 1 dereferenceable(1) %this, ptr noundef %__p) #0 comdat align 2 {
entry:
  %this.addr = alloca ptr, align 8
  %__p.addr = alloca ptr, align 8
  store ptr %this, ptr %this.addr, align 8
  store ptr %__p, ptr %__p.addr, align 8
  ret void
}

; Function Attrs: mustprogress nounwind uwtable
define linkonce_odr dso_local noundef i32 @_ZNSt14numeric_limitsIjE3maxEv() #0 comdat align 2 {
entry:
  ret i32 -1
}

; Function Attrs: mustprogress nounwind uwtable
define linkonce_odr dso_local void @_ZN9__gnu_cxx17__normal_iteratorIPN4node9inspector8protocol4cbor15EnvelopeEncoderESt6vectorIS5_SaIS5_EEEC2ERKS6_(ptr noundef nonnull align 8 dereferenceable(8) %this, ptr noundef nonnull align 8 dereferenceable(8) %__i) unnamed_addr #0 comdat align 2 {
entry:
  %this.addr = alloca ptr, align 8
  %__i.addr = alloca ptr, align 8
  store ptr %this, ptr %this.addr, align 8
  store ptr %__i, ptr %__i.addr, align 8
  %this1 = load ptr, ptr %this.addr, align 8
  %_M_current = getelementptr inbounds %"class.__gnu_cxx::__normal_iterator.271", ptr %this1, i32 0, i32 0
  %0 = load ptr, ptr %__i.addr, align 8
  %1 = load ptr, ptr %0, align 8
  store ptr %1, ptr %_M_current, align 8
  ret void
}

; Function Attrs: mustprogress nounwind uwtable
define linkonce_odr dso_local void @_ZNSt16allocator_traitsISaIN4node9inspector8protocol4cbor15EnvelopeEncoderEEE7destroyIS4_EEvRS5_PT_(ptr noundef nonnull align 1 dereferenceable(1) %__a, ptr noundef %__p) #0 comdat align 2 {
entry:
  %__a.addr = alloca ptr, align 8
  %__p.addr = alloca ptr, align 8
  store ptr %__a, ptr %__a.addr, align 8
  store ptr %__p, ptr %__p.addr, align 8
  %0 = load ptr, ptr %__a.addr, align 8
  %1 = load ptr, ptr %__p.addr, align 8
  call void @_ZNSt15__new_allocatorIN4node9inspector8protocol4cbor15EnvelopeEncoderEE7destroyIS4_EEvPT_(ptr noundef nonnull align 1 dereferenceable(1) %0, ptr noundef %1) #13
  ret void
}

; Function Attrs: mustprogress nounwind uwtable
define linkonce_odr dso_local noundef zeroext i1 @_ZN4node9inspector8protocol4cbor14EncodeStopTmplINSt7__cxx1112basic_stringIcSt11char_traitsIcESaIcEEEEEbPT_Pm(ptr noundef %out, ptr noundef %byte_size_pos) #0 comdat {
entry:
  %retval = alloca i1, align 1
  %out.addr = alloca ptr, align 8
  %byte_size_pos.addr = alloca ptr, align 8
  %byte_size = alloca i64, align 8
  %shift_bytes = alloca i32, align 4
  store ptr %out, ptr %out.addr, align 8
  store ptr %byte_size_pos, ptr %byte_size_pos.addr, align 8
  %0 = load ptr, ptr %out.addr, align 8
  %call = call noundef i64 @_ZNKSt7__cxx1112basic_stringIcSt11char_traitsIcESaIcEE4sizeEv(ptr noundef nonnull align 8 dereferenceable(32) %0) #13
  %1 = load ptr, ptr %byte_size_pos.addr, align 8
  %2 = load i64, ptr %1, align 8
  %add = add i64 %2, 4
  %sub = sub i64 %call, %add
  store i64 %sub, ptr %byte_size, align 8
  %3 = load i64, ptr %byte_size, align 8
  %call1 = call noundef i32 @_ZNSt14numeric_limitsIjE3maxEv() #13
  %conv = zext i32 %call1 to i64
  %cmp = icmp ugt i64 %3, %conv
  br i1 %cmp, label %if.then, label %if.end

if.then:                                          ; preds = %entry
  store i1 false, ptr %retval, align 1
  br label %return

if.end:                                           ; preds = %entry
  store i32 3, ptr %shift_bytes, align 4
  br label %for.cond

for.cond:                                         ; preds = %for.inc, %if.end
  %4 = load i32, ptr %shift_bytes, align 4
  %cmp2 = icmp sge i32 %4, 0
  br i1 %cmp2, label %for.body, label %for.end

for.body:                                         ; preds = %for.cond
  %5 = load i64, ptr %byte_size, align 8
  %6 = load i32, ptr %shift_bytes, align 4
  %mul = mul nsw i32 %6, 8
  %sh_prom = zext i32 %mul to i64
  %shr = lshr i64 %5, %sh_prom
  %and = and i64 255, %shr
  %conv3 = trunc i64 %and to i8
  %7 = load ptr, ptr %out.addr, align 8
  %8 = load ptr, ptr %byte_size_pos.addr, align 8
  %9 = load i64, ptr %8, align 8
  %inc = add i64 %9, 1
  store i64 %inc, ptr %8, align 8
  %call4 = call noundef nonnull align 1 dereferenceable(1) ptr @_ZNSt7__cxx1112basic_stringIcSt11char_traitsIcESaIcEEixEm(ptr noundef nonnull align 8 dereferenceable(32) %7, i64 noundef %9)
  store i8 %conv3, ptr %call4, align 1
  br label %for.inc

for.inc:                                          ; preds = %for.body
  %10 = load i32, ptr %shift_bytes, align 4
  %dec = add nsw i32 %10, -1
  store i32 %dec, ptr %shift_bytes, align 4
  br label %for.cond, !llvm.loop !24

for.end:                                          ; preds = %for.cond
  store i1 true, ptr %retval, align 1
  br label %return

return:                                           ; preds = %for.end, %if.then
  %11 = load i1, ptr %retval, align 1
  ret i1 %11
}

; Function Attrs: mustprogress nounwind uwtable
define linkonce_odr dso_local noundef nonnull align 8 dereferenceable(8) ptr @_ZNK9__gnu_cxx17__normal_iteratorIPN4node9inspector8protocol4cbor15EnvelopeEncoderESt6vectorIS5_SaIS5_EEEdeEv(ptr noundef nonnull align 8 dereferenceable(8) %this) #0 comdat align 2 {
entry:
  %this.addr = alloca ptr, align 8
  store ptr %this, ptr %this.addr, align 8
  %this1 = load ptr, ptr %this.addr, align 8
  %_M_current = getelementptr inbounds %"class.__gnu_cxx::__normal_iterator.271", ptr %this1, i32 0, i32 0
  %0 = load ptr, ptr %_M_current, align 8
  ret ptr %0
}

; Function Attrs: mustprogress nounwind uwtable
define linkonce_odr dso_local ptr @_ZNK9__gnu_cxx17__normal_iteratorIPN4node9inspector8protocol4cbor15EnvelopeEncoderESt6vectorIS5_SaIS5_EEEmiEl(ptr noundef nonnull align 8 dereferenceable(8) %this, i64 noundef %__n) #0 comdat align 2 {
entry:
  %retval = alloca %"class.__gnu_cxx::__normal_iterator.271", align 8
  %this.addr = alloca ptr, align 8
  %__n.addr = alloca i64, align 8
  %ref.tmp = alloca ptr, align 8
  store ptr %this, ptr %this.addr, align 8
  store i64 %__n, ptr %__n.addr, align 8
  %this1 = load ptr, ptr %this.addr, align 8
  %_M_current = getelementptr inbounds %"class.__gnu_cxx::__normal_iterator.271", ptr %this1, i32 0, i32 0
  %0 = load ptr, ptr %_M_current, align 8
  %1 = load i64, ptr %__n.addr, align 8
  %idx.neg = sub i64 0, %1
  %add.ptr = getelementptr inbounds %"class.node::inspector::protocol::cbor::EnvelopeEncoder", ptr %0, i64 %idx.neg
  store ptr %add.ptr, ptr %ref.tmp, align 8
  call void @_ZN9__gnu_cxx17__normal_iteratorIPN4node9inspector8protocol4cbor15EnvelopeEncoderESt6vectorIS5_SaIS5_EEEC2ERKS6_(ptr noundef nonnull align 8 dereferenceable(8) %retval, ptr noundef nonnull align 8 dereferenceable(8) %ref.tmp) #13
  %coerce.dive = getelementptr inbounds %"class.__gnu_cxx::__normal_iterator.271", ptr %retval, i32 0, i32 0
  %2 = load ptr, ptr %coerce.dive, align 8
  ret ptr %2
}

; Function Attrs: mustprogress nounwind uwtable
define linkonce_odr dso_local ptr @_ZNSt6vectorIN4node9inspector8protocol4cbor15EnvelopeEncoderESaIS4_EE3endEv(ptr noundef nonnull align 8 dereferenceable(24) %this) #0 comdat align 2 {
entry:
  %retval = alloca %"class.__gnu_cxx::__normal_iterator.271", align 8
  %this.addr = alloca ptr, align 8
  store ptr %this, ptr %this.addr, align 8
  %this1 = load ptr, ptr %this.addr, align 8
  %_M_impl = getelementptr inbounds %"struct.std::_Vector_base.184", ptr %this1, i32 0, i32 0
  %_M_finish = getelementptr inbounds %"struct.std::_Vector_base<node::inspector::protocol::cbor::EnvelopeEncoder, std::allocator<node::inspector::protocol::cbor::EnvelopeEncoder>>::_Vector_impl_data", ptr %_M_impl, i32 0, i32 1
  call void @_ZN9__gnu_cxx17__normal_iteratorIPN4node9inspector8protocol4cbor15EnvelopeEncoderESt6vectorIS5_SaIS5_EEEC2ERKS6_(ptr noundef nonnull align 8 dereferenceable(8) %retval, ptr noundef nonnull align 8 dereferenceable(8) %_M_finish) #13
  %coerce.dive = getelementptr inbounds %"class.__gnu_cxx::__normal_iterator.271", ptr %retval, i32 0, i32 0
  %0 = load ptr, ptr %coerce.dive, align 8
  ret ptr %0
}

; Function Attrs: mustprogress nounwind uwtable
define linkonce_odr dso_local void @_ZNSt6vectorIN4node9inspector8protocol4cbor15EnvelopeEncoderESaIS4_EE8pop_backEv(ptr noundef nonnull align 8 dereferenceable(24) %this) #0 comdat align 2 {
entry:
  %this.addr = alloca ptr, align 8
  store ptr %this, ptr %this.addr, align 8
  %this1 = load ptr, ptr %this.addr, align 8
  %_M_impl = getelementptr inbounds %"struct.std::_Vector_base.184", ptr %this1, i32 0, i32 0
  %_M_finish = getelementptr inbounds %"struct.std::_Vector_base<node::inspector::protocol::cbor::EnvelopeEncoder, std::allocator<node::inspector::protocol::cbor::EnvelopeEncoder>>::_Vector_impl_data", ptr %_M_impl, i32 0, i32 1
  %0 = load ptr, ptr %_M_finish, align 8
  %incdec.ptr = getelementptr inbounds %"class.node::inspector::protocol::cbor::EnvelopeEncoder", ptr %0, i32 -1
  store ptr %incdec.ptr, ptr %_M_finish, align 8
  %_M_impl2 = getelementptr inbounds %"struct.std::_Vector_base.184", ptr %this1, i32 0, i32 0
  %_M_impl3 = getelementptr inbounds %"struct.std::_Vector_base.184", ptr %this1, i32 0, i32 0
  %_M_finish4 = getelementptr inbounds %"struct.std::_Vector_base<node::inspector::protocol::cbor::EnvelopeEncoder, std::allocator<node::inspector::protocol::cbor::EnvelopeEncoder>>::_Vector_impl_data", ptr %_M_impl3, i32 0, i32 1
  %1 = load ptr, ptr %_M_finish4, align 8
  call void @_ZNSt16allocator_traitsISaIN4node9inspector8protocol4cbor15EnvelopeEncoderEEE7destroyIS4_EEvRS5_PT_(ptr noundef nonnull align 1 dereferenceable(1) %_M_impl2, ptr noundef %1) #13
  ret void
}

; Function Attrs: mustprogress nounwind uwtable
define linkonce_odr dso_local void @_ZN4node9inspector8protocol6StatusC2ENS1_5ErrorEm(ptr noundef nonnull align 8 dereferenceable(16) %this, i32 noundef %error, i64 noundef %pos) unnamed_addr #0 comdat align 2 {
entry:
  %this.addr = alloca ptr, align 8
  %error.addr = alloca i32, align 4
  %pos.addr = alloca i64, align 8
  store ptr %this, ptr %this.addr, align 8
  store i32 %error, ptr %error.addr, align 4
  store i64 %pos, ptr %pos.addr, align 8
  %this1 = load ptr, ptr %this.addr, align 8
  %error2 = getelementptr inbounds %"struct.node::inspector::protocol::Status", ptr %this1, i32 0, i32 0
  %0 = load i32, ptr %error.addr, align 4
  store i32 %0, ptr %error2, align 8
  %pos3 = getelementptr inbounds %"struct.node::inspector::protocol::Status", ptr %this1, i32 0, i32 1
  %1 = load i64, ptr %pos.addr, align 8
  store i64 %1, ptr %pos3, align 8
  ret void
}

; Function Attrs: mustprogress nounwind uwtable
define dso_local noundef zeroext i1 @_ZN4node9inspector8protocol4cbor15EnvelopeEncoder10EncodeStopEPNSt7__cxx1112basic_stringIcSt11char_traitsIcESaIcEEE(ptr noundef nonnull align 8 dereferenceable(8) %this, ptr noundef %out) #0 align 2 {
entry:
  %this.addr = alloca ptr, align 8
  %out.addr = alloca ptr, align 8
  store ptr %this, ptr %this.addr, align 8
  store ptr %out, ptr %out.addr, align 8
  %this1 = load ptr, ptr %this.addr, align 8
  %0 = load ptr, ptr %out.addr, align 8
  %byte_size_pos_ = getelementptr inbounds %"class.node::inspector::protocol::cbor::EnvelopeEncoder", ptr %this1, i32 0, i32 0
  %call = call noundef zeroext i1 @_ZN4node9inspector8protocol4cbor14EncodeStopTmplINSt7__cxx1112basic_stringIcSt11char_traitsIcESaIcEEEEEbPT_Pm(ptr noundef %0, ptr noundef %byte_size_pos_)
  ret i1 %call
}

; Function Attrs: mustprogress nounwind uwtable
define linkonce_odr dso_local noundef nonnull align 8 dereferenceable(8) ptr @_ZNSt6vectorIN4node9inspector8protocol4cbor15EnvelopeEncoderESaIS4_EE4backEv(ptr noundef nonnull align 8 dereferenceable(24) %this) #0 comdat align 2 {
entry:
  %this.addr = alloca ptr, align 8
  %ref.tmp = alloca %"class.__gnu_cxx::__normal_iterator.271", align 8
  %ref.tmp2 = alloca %"class.__gnu_cxx::__normal_iterator.271", align 8
  store ptr %this, ptr %this.addr, align 8
  %this1 = load ptr, ptr %this.addr, align 8
  %call = call ptr @_ZNSt6vectorIN4node9inspector8protocol4cbor15EnvelopeEncoderESaIS4_EE3endEv(ptr noundef nonnull align 8 dereferenceable(24) %this1) #13
  %coerce.dive = getelementptr inbounds %"class.__gnu_cxx::__normal_iterator.271", ptr %ref.tmp2, i32 0, i32 0
  store ptr %call, ptr %coerce.dive, align 8
  %call3 = call ptr @_ZNK9__gnu_cxx17__normal_iteratorIPN4node9inspector8protocol4cbor15EnvelopeEncoderESt6vectorIS5_SaIS5_EEEmiEl(ptr noundef nonnull align 8 dereferenceable(8) %ref.tmp2, i64 noundef 1) #13
  %coerce.dive4 = getelementptr inbounds %"class.__gnu_cxx::__normal_iterator.271", ptr %ref.tmp, i32 0, i32 0
  store ptr %call3, ptr %coerce.dive4, align 8
  %call5 = call noundef nonnull align 8 dereferenceable(8) ptr @_ZNK9__gnu_cxx17__normal_iteratorIPN4node9inspector8protocol4cbor15EnvelopeEncoderESt6vectorIS5_SaIS5_EEEdeEv(ptr noundef nonnull align 8 dereferenceable(8) %ref.tmp) #13
  ret ptr %call5
}

; Function Attrs: mustprogress nounwind uwtable
define linkonce_odr dso_local noundef zeroext i1 @_ZNK4node9inspector8protocol6Status2okEv(ptr noundef nonnull align 8 dereferenceable(16) %this) #0 comdat align 2 {
entry:
  %this.addr = alloca ptr, align 8
  store ptr %this, ptr %this.addr, align 8
  %this1 = load ptr, ptr %this.addr, align 8
  %error = getelementptr inbounds %"struct.node::inspector::protocol::Status", ptr %this1, i32 0, i32 0
  %0 = load i32, ptr %error, align 8
  %cmp = icmp eq i32 %0, 0
  ret i1 %cmp
}

; Function Attrs: mustprogress nounwind uwtable
define internal void @_ZN4node9inspector8protocol4cbor12_GLOBAL__N_111CBOREncoderINSt7__cxx1112basic_stringIcSt11char_traitsIcESaIcEEEE14HandleArrayEndEv(ptr noundef nonnull align 8 dereferenceable(48) %this) unnamed_addr #0 align 2 {
entry:
  %this.addr = alloca ptr, align 8
  %agg.tmp = alloca %"struct.node::inspector::protocol::Status", align 8
  store ptr %this, ptr %this.addr, align 8
  %this1 = load ptr, ptr %this.addr, align 8
  %status_ = getelementptr inbounds %"class.node::inspector::protocol::cbor::(anonymous namespace)::CBOREncoder.188", ptr %this1, i32 0, i32 3
  %0 = load ptr, ptr %status_, align 8
  %call = call noundef zeroext i1 @_ZNK4node9inspector8protocol6Status2okEv(ptr noundef nonnull align 8 dereferenceable(16) %0)
  br i1 %call, label %if.end, label %if.then

if.then:                                          ; preds = %entry
  br label %return

if.end:                                           ; preds = %entry
  %out_ = getelementptr inbounds %"class.node::inspector::protocol::cbor::(anonymous namespace)::CBOREncoder.188", ptr %this1, i32 0, i32 1
  %1 = load ptr, ptr %out_, align 8
  call void @_ZNSt7__cxx1112basic_stringIcSt11char_traitsIcESaIcEE9push_backEc(ptr noundef nonnull align 8 dereferenceable(32) %1, i8 noundef signext -1)
  %envelopes_ = getelementptr inbounds %"class.node::inspector::protocol::cbor::(anonymous namespace)::CBOREncoder.188", ptr %this1, i32 0, i32 2
  %call2 = call noundef nonnull align 8 dereferenceable(8) ptr @_ZNSt6vectorIN4node9inspector8protocol4cbor15EnvelopeEncoderESaIS4_EE4backEv(ptr noundef nonnull align 8 dereferenceable(24) %envelopes_) #13
  %out_3 = getelementptr inbounds %"class.node::inspector::protocol::cbor::(anonymous namespace)::CBOREncoder.188", ptr %this1, i32 0, i32 1
  %2 = load ptr, ptr %out_3, align 8
  %call4 = call noundef zeroext i1 @_ZN4node9inspector8protocol4cbor15EnvelopeEncoder10EncodeStopEPNSt7__cxx1112basic_stringIcSt11char_traitsIcESaIcEEE(ptr noundef nonnull align 8 dereferenceable(8) %call2, ptr noundef %2)
  br i1 %call4, label %if.end8, label %if.then5

if.then5:                                         ; preds = %if.end
  %out_6 = getelementptr inbounds %"class.node::inspector::protocol::cbor::(anonymous namespace)::CBOREncoder.188", ptr %this1, i32 0, i32 1
  %3 = load ptr, ptr %out_6, align 8
  %call7 = call noundef i64 @_ZNKSt7__cxx1112basic_stringIcSt11char_traitsIcESaIcEE4sizeEv(ptr noundef nonnull align 8 dereferenceable(32) %3) #13
  call void @_ZN4node9inspector8protocol6StatusC2ENS1_5ErrorEm(ptr noundef nonnull align 8 dereferenceable(16) %agg.tmp, i32 noundef 31, i64 noundef %call7)
  %4 = getelementptr inbounds { i32, i64 }, ptr %agg.tmp, i32 0, i32 0
  %5 = load i32, ptr %4, align 8
  %6 = getelementptr inbounds { i32, i64 }, ptr %agg.tmp, i32 0, i32 1
  %7 = load i64, ptr %6, align 8
  %vtable = load ptr, ptr %this1, align 8
  %vfn = getelementptr inbounds ptr, ptr %vtable, i64 13
  %8 = load ptr, ptr %vfn, align 8
  call void %8(ptr noundef nonnull align 8 dereferenceable(48) %this1, i32 %5, i64 %7)
  br label %return

if.end8:                                          ; preds = %if.end
  %envelopes_9 = getelementptr inbounds %"class.node::inspector::protocol::cbor::(anonymous namespace)::CBOREncoder.188", ptr %this1, i32 0, i32 2
  call void @_ZNSt6vectorIN4node9inspector8protocol4cbor15EnvelopeEncoderESaIS4_EE8pop_backEv(ptr noundef nonnull align 8 dereferenceable(24) %envelopes_9) #13
  br label %return

return:                                           ; preds = %if.end8, %if.then5, %if.then
  ret void
}