; Function Attrs: mustprogress nounwind uwtable
define internal void @_ZN4node9inspector8protocol4cbor12_GLOBAL__N_111CBOREncoderINSt7__cxx1112basic_stringIcSt11char_traitsIcESaIcEEEE14HandleArrayEndEv(ptr noundef nonnull align 8 dereferenceable(48) %this) unnamed_addr #1 align 2 {
entry:
  %status_ = getelementptr inbounds i8, ptr %this, i64 40
  %0 = load ptr, ptr %status_, align 8
  %1 = load i32, ptr %0, align 8
  %cmp.i = icmp eq i32 %1, 0
  br i1 %cmp.i, label %if.end, label %return

if.end:                                           ; preds = %entry
  %out_ = getelementptr inbounds i8, ptr %this, i64 8
  %2 = load ptr, ptr %out_, align 8
  tail call void @_ZNSt7__cxx1112basic_stringIcSt11char_traitsIcESaIcEE9push_backEc(ptr noundef nonnull align 8 dereferenceable(32) %2, i8 noundef signext -1) #27
  %_M_finish.i.i = getelementptr inbounds i8, ptr %this, i64 24
  %3 = load ptr, ptr %_M_finish.i.i, align 8
  %add.ptr.i.i = getelementptr inbounds i8, ptr %3, i64 -8
  %4 = load ptr, ptr %out_, align 8
  %call.i.i = tail call noundef i64 @_ZNKSt7__cxx1112basic_stringIcSt11char_traitsIcESaIcEE4sizeEv(ptr noundef nonnull align 8 dereferenceable(32) %4) #27
  %5 = load i64, ptr %add.ptr.i.i, align 8
  %add.neg.i.i = add i64 %call.i.i, -4
  %sub.i.i = sub i64 %add.neg.i.i, %5
  %cmp.i.i = icmp ult i64 %sub.i.i, 4294967296
  br i1 %cmp.i.i, label %for.body.i.i, label %if.then5

for.body.i.i:                                     ; preds = %if.end, %for.body.i.i
  %indvars.iv.i.i = phi i64 [ %indvars.iv.next.i.i, %for.body.i.i ], [ 3, %if.end ]
  %6 = shl nsw i64 %indvars.iv.i.i, 3
  %shr.i.i = lshr i64 %sub.i.i, %6
  %conv3.i.i = trunc i64 %shr.i.i to i8
  %7 = load i64, ptr %add.ptr.i.i, align 8
  %inc.i.i = add i64 %7, 1
  store i64 %inc.i.i, ptr %add.ptr.i.i, align 8
  %call4.i.i = tail call noundef nonnull align 1 dereferenceable(1) ptr @_ZNSt7__cxx1112basic_stringIcSt11char_traitsIcESaIcEEixEm(ptr noundef nonnull align 8 dereferenceable(32) %4, i64 noundef %7) #27
  store i8 %conv3.i.i, ptr %call4.i.i, align 1
  %indvars.iv.next.i.i = add nsw i64 %indvars.iv.i.i, -1
  %cmp2.not.i.i = icmp eq i64 %indvars.iv.i.i, 0
  br i1 %cmp2.not.i.i, label %if.end8, label %for.body.i.i, !llvm.loop !170

if.then5:                                         ; preds = %if.end
  %8 = load ptr, ptr %out_, align 8
  %call7 = tail call noundef i64 @_ZNKSt7__cxx1112basic_stringIcSt11char_traitsIcESaIcEE4sizeEv(ptr noundef nonnull align 8 dereferenceable(32) %8) #27
  %vtable = load ptr, ptr %this, align 8
  %vfn = getelementptr inbounds i8, ptr %vtable, i64 104
  %9 = load ptr, ptr %vfn, align 8
  tail call void %9(ptr noundef nonnull align 8 dereferenceable(48) %this, i32 31, i64 %call7) #27
  br label %return

if.end8:                                          ; preds = %for.body.i.i
  %10 = load ptr, ptr %_M_finish.i.i, align 8
  %incdec.ptr.i = getelementptr inbounds i8, ptr %10, i64 -8
  store ptr %incdec.ptr.i, ptr %_M_finish.i.i, align 8
  br label %return

return:                                           ; preds = %entry, %if.end8, %if.then5
  ret void
}